target datalayout = "e-m:e-p270:32:32-p271:32:32-p272:64:64-i64:64-i128:128-f80:128-n8:16:32:64-S128"
target triple = "x86_64-pc-linux-gnu"

%struct.Abc_Obj_t_ = type { ptr, ptr, i32, i32, %struct.Vec_Int_t_, %struct.Vec_Int_t_, %union.anon, %union.anon.0 }
%struct.Vec_Int_t_ = type { i32, i32, ptr }
%union.anon = type { ptr }
%union.anon.0 = type { ptr }
%struct.Abc_Ntk_t_ = type { i32, i32, ptr, ptr, ptr, ptr, ptr, ptr, ptr, ptr, ptr, ptr, ptr, [11 x i32], i32, i32, i32, i32, ptr, i32, ptr, ptr, i32, i32, i32, double, i32, %struct.Vec_Int_t_, ptr, ptr, ptr, ptr, ptr, float, i32, ptr, ptr, ptr, ptr, ptr, ptr, ptr, ptr, ptr, ptr, ptr, ptr, ptr, ptr, ptr, ptr, ptr, ptr, ptr, ptr, ptr, ptr }
%struct.Vec_Ptr_t_ = type { i32, i32, ptr }

; Function Attrs: inlinehint nounwind uwtable
define internal float @Abc_ObjArrival(ptr noundef %0) #2 {
  %2 = alloca ptr, align 8
  store ptr %0, ptr %2, align 8, !tbaa !3
  %3 = load ptr, ptr %2, align 8, !tbaa !3
  %4 = getelementptr inbounds nuw %struct.Abc_Obj_t_, ptr %3, i32 0, i32 0
  %5 = load ptr, ptr %4, align 8, !tbaa !25
  %6 = getelementptr inbounds nuw %struct.Abc_Ntk_t_, ptr %5, i32 0, i32 49
  %7 = load ptr, ptr %6, align 8, !tbaa !42
  %8 = load ptr, ptr %2, align 8, !tbaa !3
  %9 = getelementptr inbounds nuw %struct.Abc_Obj_t_, ptr %8, i32 0, i32 2
  %10 = load i32, ptr %9, align 8, !tbaa !43
  %11 = mul nsw i32 3, %10
  %12 = add nsw i32 %11, 0
  %13 = sext i32 %12 to i64
  %14 = getelementptr inbounds float, ptr %7, i64 %13
  %15 = load float, ptr %14, align 4, !tbaa !14
  ret float %15
}

; Function Attrs: inlinehint nounwind uwtable
define internal ptr @Abc_ObjFanin(ptr noundef %0, i32 noundef %1) #2 {
  %3 = alloca ptr, align 8
  %4 = alloca i32, align 4
  store ptr %0, ptr %3, align 8, !tbaa !3
  store i32 %1, ptr %4, align 4, !tbaa !12
  %5 = load ptr, ptr %3, align 8, !tbaa !3
  %6 = getelementptr inbounds nuw %struct.Abc_Obj_t_, ptr %5, i32 0, i32 0
  %7 = load ptr, ptr %6, align 8, !tbaa !25
  %8 = getelementptr inbounds nuw %struct.Abc_Ntk_t_, ptr %7, i32 0, i32 5
  %9 = load ptr, ptr %8, align 8, !tbaa !26
  %10 = getelementptr inbounds nuw %struct.Vec_Ptr_t_, ptr %9, i32 0, i32 2
  %11 = load ptr, ptr %10, align 8, !tbaa !38
  %12 = load ptr, ptr %3, align 8, !tbaa !3
  %13 = getelementptr inbounds nuw %struct.Abc_Obj_t_, ptr %12, i32 0, i32 4
  %14 = getelementptr inbounds nuw %struct.Vec_Int_t_, ptr %13, i32 0, i32 2
  %15 = load ptr, ptr %14, align 8, !tbaa !40
  %16 = load i32, ptr %4, align 4, !tbaa !12
  %17 = sext i32 %16 to i64
  %18 = getelementptr inbounds i32, ptr %15, i64 %17
  %19 = load i32, ptr %18, align 4, !tbaa !12
  %20 = sext i32 %19 to i64
  %21 = getelementptr inbounds ptr, ptr %11, i64 %20
  %22 = load ptr, ptr %21, align 8, !tbaa !41
  ret ptr %22
}

; Function Attrs: inlinehint nounwind uwtable
define internal i32 @Abc_ObjFaninNum(ptr noundef %0) #2 {
  %2 = alloca ptr, align 8
  store ptr %0, ptr %2, align 8, !tbaa !3
  %3 = load ptr, ptr %2, align 8, !tbaa !3
  %4 = getelementptr inbounds nuw %struct.Abc_Obj_t_, ptr %3, i32 0, i32 4
  %5 = getelementptr inbounds nuw %struct.Vec_Int_t_, ptr %4, i32 0, i32 1
  %6 = load i32, ptr %5, align 4, !tbaa !21
  ret i32 %6
}

; Function Attrs: nounwind uwtable
define void @Abc_NtkDelayTraceSortPins(ptr noundef %0, ptr noundef %1, ptr noundef %2) #0 {
  %4 = alloca ptr, align 8
  %5 = alloca ptr, align 8
  %6 = alloca ptr, align 8
  %7 = alloca ptr, align 8
  %8 = alloca i32, align 4
  %9 = alloca i32, align 4
  %10 = alloca i32, align 4
  %11 = alloca i32, align 4
  store ptr %0, ptr %4, align 8, !tbaa !3
  store ptr %1, ptr %5, align 8, !tbaa !8
  store ptr %2, ptr %6, align 8, !tbaa !10
  call void @llvm.lifetime.start.p0(i64 8, ptr %7) #8
  call void @llvm.lifetime.start.p0(i64 4, ptr %8) #8
  call void @llvm.lifetime.start.p0(i64 4, ptr %9) #8
  call void @llvm.lifetime.start.p0(i64 4, ptr %10) #8
  call void @llvm.lifetime.start.p0(i64 4, ptr %11) #8
  store i32 0, ptr %8, align 4, !tbaa !12
  br label %12

12:                                               ; preds = %35, %3
  %13 = load i32, ptr %8, align 4, !tbaa !12
  %14 = load ptr, ptr %4, align 8, !tbaa !3
  %15 = call i32 @Abc_ObjFaninNum(ptr noundef %14)
  %16 = icmp slt i32 %13, %15
  br i1 %16, label %17, label %21

17:                                               ; preds = %12
  %18 = load ptr, ptr %4, align 8, !tbaa !3
  %19 = load i32, ptr %8, align 4, !tbaa !12
  %20 = call ptr @Abc_ObjFanin(ptr noundef %18, i32 noundef %19)
  store ptr %20, ptr %7, align 8, !tbaa !3
  br label %21

21:                                               ; preds = %17, %12
  %22 = phi i1 [ false, %12 ], [ true, %17 ]
  br i1 %22, label %23, label %38

23:                                               ; preds = %21
  %24 = load i32, ptr %8, align 4, !tbaa !12
  %25 = load ptr, ptr %5, align 8, !tbaa !8
  %26 = load i32, ptr %8, align 4, !tbaa !12
  %27 = sext i32 %26 to i64
  %28 = getelementptr inbounds i32, ptr %25, i64 %27
  store i32 %24, ptr %28, align 4, !tbaa !12
  %29 = load ptr, ptr %7, align 8, !tbaa !3
  %30 = call float @Abc_ObjArrival(ptr noundef %29)
  %31 = load ptr, ptr %6, align 8, !tbaa !10
  %32 = load i32, ptr %8, align 4, !tbaa !12
  %33 = sext i32 %32 to i64
  %34 = getelementptr inbounds float, ptr %31, i64 %33
  store float %30, ptr %34, align 4, !tbaa !14
  br label %35

35:                                               ; preds = %23
  %36 = load i32, ptr %8, align 4, !tbaa !12
  %37 = add nsw i32 %36, 1
  store i32 %37, ptr %8, align 4, !tbaa !12
  br label %12, !llvm.loop !16

38:                                               ; preds = %21
  store i32 0, ptr %8, align 4, !tbaa !12
  br label %39

39:                                               ; preds = %105, %38
  %40 = load i32, ptr %8, align 4, !tbaa !12
  %41 = load ptr, ptr %4, align 8, !tbaa !3
  %42 = call i32 @Abc_ObjFaninNum(ptr noundef %41)
  %43 = sub nsw i32 %42, 1
  %44 = icmp slt i32 %40, %43
  br i1 %44, label %45, label %108

45:                                               ; preds = %39
  %46 = load i32, ptr %8, align 4, !tbaa !12
  store i32 %46, ptr %10, align 4, !tbaa !12
  %47 = load i32, ptr %8, align 4, !tbaa !12
  %48 = add nsw i32 %47, 1
  store i32 %48, ptr %9, align 4, !tbaa !12
  br label %49

49:                                               ; preds = %77, %45
  %50 = load i32, ptr %9, align 4, !tbaa !12
  %51 = load ptr, ptr %4, align 8, !tbaa !3
  %52 = call i32 @Abc_ObjFaninNum(ptr noundef %51)
  %53 = icmp slt i32 %50, %52
  br i1 %53, label %54, label %80

54:                                               ; preds = %49
  %55 = load ptr, ptr %6, align 8, !tbaa !10
  %56 = load ptr, ptr %5, align 8, !tbaa !8
  %57 = load i32, ptr %9, align 4, !tbaa !12
  %58 = sext i32 %57 to i64
  %59 = getelementptr inbounds i32, ptr %56, i64 %58
  %60 = load i32, ptr %59, align 4, !tbaa !12
  %61 = sext i32 %60 to i64
  %62 = getelementptr inbounds float, ptr %55, i64 %61
  %63 = load float, ptr %62, align 4, !tbaa !14
  %64 = load ptr, ptr %6, align 8, !tbaa !10
  %65 = load ptr, ptr %5, align 8, !tbaa !8
  %66 = load i32, ptr %10, align 4, !tbaa !12
  %67 = sext i32 %66 to i64
  %68 = getelementptr inbounds i32, ptr %65, i64 %67
  %69 = load i32, ptr %68, align 4, !tbaa !12
  %70 = sext i32 %69 to i64
  %71 = getelementptr inbounds float, ptr %64, i64 %70
  %72 = load float, ptr %71, align 4, !tbaa !14
  %73 = fcmp ogt float %63, %72
  br i1 %73, label %74, label %76

74:                                               ; preds = %54
  %75 = load i32, ptr %9, align 4, !tbaa !12
  store i32 %75, ptr %10, align 4, !tbaa !12
  br label %76

76:                                               ; preds = %74, %54
  br label %77

77:                                               ; preds = %76
  %78 = load i32, ptr %9, align 4, !tbaa !12
  %79 = add nsw i32 %78, 1
  store i32 %79, ptr %9, align 4, !tbaa !12
  br label %49, !llvm.loop !18

80:                                               ; preds = %49
  %81 = load i32, ptr %10, align 4, !tbaa !12
  %82 = load i32, ptr %8, align 4, !tbaa !12
  %83 = icmp eq i32 %81, %82
  br i1 %83, label %84, label %85

84:                                               ; preds = %80
  br label %105

85:                                               ; preds = %80
  %86 = load ptr, ptr %5, align 8, !tbaa !8
  %87 = load i32, ptr %8, align 4, !tbaa !12
  %88 = sext i32 %87 to i64
  %89 = getelementptr inbounds i32, ptr %86, i64 %88
  %90 = load i32, ptr %89, align 4, !tbaa !12
  store i32 %90, ptr %11, align 4, !tbaa !12
  %91 = load ptr, ptr %5, align 8, !tbaa !8
  %92 = load i32, ptr %10, align 4, !tbaa !12
  %93 = sext i32 %92 to i64
  %94 = getelementptr inbounds i32, ptr %91, i64 %93
  %95 = load i32, ptr %94, align 4, !tbaa !12
  %96 = load ptr, ptr %5, align 8, !tbaa !8
  %97 = load i32, ptr %8, align 4, !tbaa !12
  %98 = sext i32 %97 to i64
  %99 = getelementptr inbounds i32, ptr %96, i64 %98
  store i32 %95, ptr %99, align 4, !tbaa !12
  %100 = load i32, ptr %11, align 4, !tbaa !12
  %101 = load ptr, ptr %5, align 8, !tbaa !8
  %102 = load i32, ptr %10, align 4, !tbaa !12
  %103 = sext i32 %102 to i64
  %104 = getelementptr inbounds i32, ptr %101, i64 %103
  store i32 %100, ptr %104, align 4, !tbaa !12
  br label %105

105:                                              ; preds = %85, %84
  %106 = load i32, ptr %8, align 4, !tbaa !12
  %107 = add nsw i32 %106, 1
  store i32 %107, ptr %8, align 4, !tbaa !12
  br label %39, !llvm.loop !19

108:                                              ; preds = %39
  store i32 1, ptr %8, align 4, !tbaa !12
  br label %109

109:                                              ; preds = %115, %108
  %110 = load i32, ptr %8, align 4, !tbaa !12
  %111 = load ptr, ptr %4, align 8, !tbaa !3
  %112 = call i32 @Abc_ObjFaninNum(ptr noundef %111)
  %113 = icmp slt i32 %110, %112
  br i1 %113, label %114, label %118

114:                                              ; preds = %109
  br label %115

115:                                              ; preds = %114
  %116 = load i32, ptr %8, align 4, !tbaa !12
  %117 = add nsw i32 %116, 1
  store i32 %117, ptr %8, align 4, !tbaa !12
  br label %109, !llvm.loop !20

118:                                              ; preds = %109
  call void @llvm.lifetime.end.p0(i64 4, ptr %11) #8
  call void @llvm.lifetime.end.p0(i64 4, ptr %10) #8
  call void @llvm.lifetime.end.p0(i64 4, ptr %9) #8
  call void @llvm.lifetime.end.p0(i64 4, ptr %8) #8
  call void @llvm.lifetime.end.p0(i64 8, ptr %7) #8
  ret void
}