; Function Attrs: nofree norecurse nosync nounwind memory(read, argmem: readwrite, inaccessiblemem: none) uwtable
define void @Abc_NtkDelayTraceSortPins(ptr noundef readonly captures(none) %0, ptr noundef captures(none) %1, ptr noundef captures(none) %2) local_unnamed_addr #0 {
  %4 = getelementptr i8, ptr %0, i64 28
  %.val49 = load i32, ptr %4, align 4, !tbaa !3
  %5 = icmp sgt i32 %.val49, 0
  br i1 %5, label %.lr.ph, label %.preheader

.lr.ph:                                           ; preds = %3
  %.val45 = load ptr, ptr %0, align 8, !tbaa !13
  %6 = getelementptr i8, ptr %0, i64 32
  %.val46 = load ptr, ptr %6, align 8, !tbaa !14
  %7 = getelementptr i8, ptr %.val45, i64 32
  %.val45.val = load ptr, ptr %7, align 8, !tbaa !15
  %8 = getelementptr i8, ptr %.val45.val, i64 8
  %.val45.val.val = load ptr, ptr %8, align 8, !tbaa !29
  br label %10

.critedge.preheader:                              ; preds = %10
  %9 = icmp sgt i32 %.val, 1
  br i1 %9, label %.lr.ph57, label %.preheader

10:                                               ; preds = %.lr.ph, %10
  %indvars.iv = phi i64 [ 0, %.lr.ph ], [ %indvars.iv.next, %10 ]
  %11 = getelementptr inbounds nuw i32, ptr %.val46, i64 %indvars.iv
  %12 = load i32, ptr %11, align 4, !tbaa !31
  %13 = sext i32 %12 to i64
  %14 = getelementptr inbounds ptr, ptr %.val45.val.val, i64 %13
  %15 = load ptr, ptr %14, align 8, !tbaa !32
  %16 = getelementptr inbounds nuw i32, ptr %1, i64 %indvars.iv
  %17 = trunc nuw nsw i64 %indvars.iv to i32
  store i32 %17, ptr %16, align 4, !tbaa !31
  %.val47 = load ptr, ptr %15, align 8, !tbaa !13
  %18 = getelementptr i8, ptr %15, i64 16
  %.val48 = load i32, ptr %18, align 8, !tbaa !33
  %19 = getelementptr i8, ptr %.val47, i64 400
  %.val47.val = load ptr, ptr %19, align 8, !tbaa !34
  %20 = mul nsw i32 %.val48, 3
  %21 = sext i32 %20 to i64
  %22 = getelementptr inbounds float, ptr %.val47.val, i64 %21
  %23 = load float, ptr %22, align 4, !tbaa !35
  %24 = getelementptr inbounds nuw float, ptr %2, i64 %indvars.iv
  store float %23, ptr %24, align 4, !tbaa !35
  %indvars.iv.next = add nuw nsw i64 %indvars.iv, 1
  %.val = load i32, ptr %4, align 4, !tbaa !3
  %25 = sext i32 %.val to i64
  %26 = icmp slt i64 %indvars.iv.next, %25
  br i1 %26, label %10, label %.critedge.preheader, !llvm.loop !36

.preheader:                                       ; preds = %.critedge, %3, %.critedge.preheader
  ret void

.lr.ph57:                                         ; preds = %.critedge.preheader, %.critedge
  %.val4270 = phi i32 [ %.val42, %.critedge ], [ %.val, %.critedge.preheader ]
  %indvars.iv66 = phi i64 [ %indvars.iv.next67, %.critedge ], [ 0, %.critedge.preheader ]
  %indvars.iv61 = phi i64 [ %indvars.iv.next62, %.critedge ], [ 1, %.critedge.preheader ]
  %indvars.iv.next67 = add nuw nsw i64 %indvars.iv66, 1
  %27 = sext i32 %.val4270 to i64
  %28 = icmp slt i64 %indvars.iv.next67, %27
  %29 = trunc nuw nsw i64 %indvars.iv66 to i32
  br i1 %28, label %.lr.ph53.preheader, label %._crit_edge

.lr.ph53.preheader:                               ; preds = %.lr.ph57
  %wide.trip.count = zext i32 %.val4270 to i64
  br label %.lr.ph53

.lr.ph53:                                         ; preds = %.lr.ph53.preheader, %.lr.ph53
  %indvars.iv63 = phi i64 [ %indvars.iv61, %.lr.ph53.preheader ], [ %indvars.iv.next64, %.lr.ph53 ]
  %.03952 = phi i32 [ %29, %.lr.ph53.preheader ], [ %.140, %.lr.ph53 ]
  %30 = getelementptr inbounds nuw i32, ptr %1, i64 %indvars.iv63
  %31 = load i32, ptr %30, align 4, !tbaa !31
  %32 = sext i32 %31 to i64
  %33 = getelementptr inbounds float, ptr %2, i64 %32
  %34 = load float, ptr %33, align 4, !tbaa !35
  %35 = sext i32 %.03952 to i64
  %36 = getelementptr inbounds i32, ptr %1, i64 %35
  %37 = load i32, ptr %36, align 4, !tbaa !31
  %38 = sext i32 %37 to i64
  %39 = getelementptr inbounds float, ptr %2, i64 %38
  %40 = load float, ptr %39, align 4, !tbaa !35
  %41 = fcmp ogt float %34, %40
  %42 = trunc nuw nsw i64 %indvars.iv63 to i32
  %.140 = select i1 %41, i32 %42, i32 %.03952
  %indvars.iv.next64 = add nuw nsw i64 %indvars.iv63, 1
  %exitcond.not = icmp eq i64 %indvars.iv.next64, %wide.trip.count
  br i1 %exitcond.not, label %._crit_edge, label %.lr.ph53, !llvm.loop !38

._crit_edge:                                      ; preds = %.lr.ph53, %.lr.ph57
  %.039.lcssa = phi i32 [ %29, %.lr.ph57 ], [ %.140, %.lr.ph53 ]
  %43 = zext i32 %.039.lcssa to i64
  %44 = icmp eq i64 %indvars.iv66, %43
  br i1 %44, label %.critedge, label %45

45:                                               ; preds = %._crit_edge
  %46 = getelementptr inbounds nuw i32, ptr %1, i64 %indvars.iv66
  %47 = load i32, ptr %46, align 4, !tbaa !31
  %48 = sext i32 %.039.lcssa to i64
  %49 = getelementptr inbounds i32, ptr %1, i64 %48
  %50 = load i32, ptr %49, align 4, !tbaa !31
  store i32 %50, ptr %46, align 4, !tbaa !31
  store i32 %47, ptr %49, align 4, !tbaa !31
  %.val42.pre = load i32, ptr %4, align 4, !tbaa !3
  br label %.critedge

.critedge:                                        ; preds = %._crit_edge, %45
  %.val42 = phi i32 [ %.val4270, %._crit_edge ], [ %.val42.pre, %45 ]
  %51 = add nsw i32 %.val42, -1
  %52 = sext i32 %51 to i64
  %53 = icmp slt i64 %indvars.iv.next67, %52
  %indvars.iv.next62 = add nuw nsw i64 %indvars.iv61, 1
  br i1 %53, label %.lr.ph57, label %.preheader, !llvm.loop !39
}